target datalayout = "e-m:e-p270:32:32-p271:32:32-p272:64:64-i64:64-i128:128-f80:128-n8:16:32:64-S128"
target triple = "x86_64-pc-linux-gnu"

%class.Type = type <{ ptr, ptr, i32, [4 x i8] }>
%class.TypeAryPtr = type <{ %class.TypeOopPtr, ptr, i8, [7 x i8] }>
%class.TypeOopPtr = type { %class.TypePtr.base, ptr, ptr, ptr, i8, i8, i8, i8, i32 }
%class.TypePtr.base = type <{ %class.Type.base, [4 x i8], ptr, i32, i32, i32 }>
%class.Type.base = type <{ ptr, ptr, i32 }>
%class.TypeAry = type <{ %class.Type.base, [4 x i8], ptr, ptr, i8, [7 x i8] }>
%class.TypeNarrowPtr = type { %class.Type.base, ptr }

; Function Attrs: mustprogress nounwind uwtable
define linkonce_odr hidden noundef ptr @_ZNK4Type7isa_ptrEv(ptr noundef nonnull align 8 dereferenceable(20) %0) #1 comdat align 2 {
  %2 = alloca ptr, align 8
  store ptr %0, ptr %2, align 8
  %3 = load ptr, ptr %2, align 8
  %4 = getelementptr inbounds %class.Type, ptr %3, i32 0, i32 2
  %5 = load i32, ptr %4, align 8
  %6 = icmp sge i32 %5, 18
  br i1 %6, label %7, label %12

7:                                                ; preds = %1
  %8 = getelementptr inbounds %class.Type, ptr %3, i32 0, i32 2
  %9 = load i32, ptr %8, align 8
  %10 = icmp sle i32 %9, 26
  br i1 %10, label %11, label %12

11:                                               ; preds = %7
  br label %13

12:                                               ; preds = %7, %1
  br label %13

13:                                               ; preds = %12, %11
  %14 = phi ptr [ %3, %11 ], [ null, %12 ]
  ret ptr %14
}

; Function Attrs: mustprogress nounwind uwtable
define linkonce_odr hidden noundef ptr @_ZNK4Type14is_narrowklassEv(ptr noundef nonnull align 8 dereferenceable(20) %0) #1 comdat align 2 {
  %2 = alloca ptr, align 8
  store ptr %0, ptr %2, align 8
  %3 = load ptr, ptr %2, align 8
  ret ptr %3
}

; Function Attrs: mustprogress nounwind uwtable
define linkonce_odr hidden noundef ptr @_ZNK13TypeNarrowPtr11get_ptrtypeEv(ptr noundef nonnull align 8 dereferenceable(32) %0) #1 comdat align 2 {
  %2 = alloca ptr, align 8
  store ptr %0, ptr %2, align 8
  %3 = load ptr, ptr %2, align 8
  %4 = getelementptr inbounds %class.TypeNarrowPtr, ptr %3, i32 0, i32 1
  %5 = load ptr, ptr %4, align 8
  ret ptr %5
}

; Function Attrs: mustprogress nounwind uwtable
define linkonce_odr hidden noundef ptr @_ZNK4Type12is_narrowoopEv(ptr noundef nonnull align 8 dereferenceable(20) %0) #1 comdat align 2 {
  %2 = alloca ptr, align 8
  store ptr %0, ptr %2, align 8
  %3 = load ptr, ptr %2, align 8
  ret ptr %3
}

; Function Attrs: mustprogress nounwind uwtable
define linkonce_odr hidden noundef ptr @_ZNK4Type10is_instptrEv(ptr noundef nonnull align 8 dereferenceable(20) %0) #1 comdat align 2 {
  %2 = alloca ptr, align 8
  store ptr %0, ptr %2, align 8
  %3 = load ptr, ptr %2, align 8
  ret ptr %3
}

; Function Attrs: mustprogress nounwind uwtable
define linkonce_odr hidden noundef ptr @_ZNK4Type11isa_instptrEv(ptr noundef nonnull align 8 dereferenceable(20) %0) #1 comdat align 2 {
  %2 = alloca ptr, align 8
  store ptr %0, ptr %2, align 8
  %3 = load ptr, ptr %2, align 8
  %4 = getelementptr inbounds %class.Type, ptr %3, i32 0, i32 2
  %5 = load i32, ptr %4, align 8
  %6 = icmp eq i32 %5, 21
  br i1 %6, label %7, label %8

7:                                                ; preds = %1
  br label %9

8:                                                ; preds = %1
  br label %9

9:                                                ; preds = %8, %7
  %10 = phi ptr [ %3, %7 ], [ null, %8 ]
  ret ptr %10
}

; Function Attrs: mustprogress nounwind uwtable
define linkonce_odr hidden noundef ptr @_ZNK4Type9is_aryptrEv(ptr noundef nonnull align 8 dereferenceable(20) %0) #1 comdat align 2 {
  %2 = alloca ptr, align 8
  store ptr %0, ptr %2, align 8
  %3 = load ptr, ptr %2, align 8
  ret ptr %3
}

; Function Attrs: mustprogress nounwind uwtable
define linkonce_odr hidden noundef ptr @_ZNK4Type8make_ptrEv(ptr noundef nonnull align 8 dereferenceable(20) %0) #1 comdat align 2 {
  %2 = alloca ptr, align 8
  store ptr %0, ptr %2, align 8
  %3 = load ptr, ptr %2, align 8
  %4 = getelementptr inbounds %class.Type, ptr %3, i32 0, i32 2
  %5 = load i32, ptr %4, align 8
  %6 = icmp eq i32 %5, 6
  br i1 %6, label %7, label %10

7:                                                ; preds = %1
  %8 = call noundef ptr @_ZNK4Type12is_narrowoopEv(ptr noundef nonnull align 8 dereferenceable(20) %3)
  %9 = call noundef ptr @_ZNK13TypeNarrowPtr11get_ptrtypeEv(ptr noundef nonnull align 8 dereferenceable(32) %8)
  br label %21

10:                                               ; preds = %1
  %11 = getelementptr inbounds %class.Type, ptr %3, i32 0, i32 2
  %12 = load i32, ptr %11, align 8
  %13 = icmp eq i32 %12, 7
  br i1 %13, label %14, label %17

14:                                               ; preds = %10
  %15 = call noundef ptr @_ZNK4Type14is_narrowklassEv(ptr noundef nonnull align 8 dereferenceable(20) %3)
  %16 = call noundef ptr @_ZNK13TypeNarrowPtr11get_ptrtypeEv(ptr noundef nonnull align 8 dereferenceable(32) %15)
  br label %19

17:                                               ; preds = %10
  %18 = call noundef ptr @_ZNK4Type7isa_ptrEv(ptr noundef nonnull align 8 dereferenceable(20) %3)
  br label %19

19:                                               ; preds = %17, %14
  %20 = phi ptr [ %16, %14 ], [ %18, %17 ]
  br label %21

21:                                               ; preds = %19, %7
  %22 = phi ptr [ %9, %7 ], [ %20, %19 ]
  ret ptr %22
}

; Function Attrs: mustprogress nounwind uwtable
define linkonce_odr hidden noundef ptr @_ZNK10TypeAryPtr4elemEv(ptr noundef nonnull align 8 dereferenceable(89) %0) #1 comdat align 2 {
  %2 = alloca ptr, align 8
  store ptr %0, ptr %2, align 8
  %3 = load ptr, ptr %2, align 8
  %4 = getelementptr inbounds %class.TypeAryPtr, ptr %3, i32 0, i32 1
  %5 = load ptr, ptr %4, align 8
  %6 = getelementptr inbounds %class.TypeAry, ptr %5, i32 0, i32 2
  %7 = load ptr, ptr %6, align 8
  ret ptr %7
}

; Function Attrs: mustprogress nounwind uwtable
define linkonce_odr hidden noundef ptr @_ZNK4Type10isa_aryptrEv(ptr noundef nonnull align 8 dereferenceable(20) %0) #1 comdat align 2 {
  %2 = alloca ptr, align 8
  store ptr %0, ptr %2, align 8
  %3 = load ptr, ptr %2, align 8
  %4 = getelementptr inbounds %class.Type, ptr %3, i32 0, i32 2
  %5 = load i32, ptr %4, align 8
  %6 = icmp eq i32 %5, 22
  br i1 %6, label %7, label %8

7:                                                ; preds = %1
  br label %9

8:                                                ; preds = %1
  br label %9

9:                                                ; preds = %8, %7
  %10 = phi ptr [ %3, %7 ], [ null, %8 ]
  ret ptr %10
}

; Function Attrs: mustprogress nounwind uwtable
define hidden void @_ZN4Type24get_arrays_base_elementsEPKS_S1_PPK11TypeInstPtrS5_(ptr noundef %0, ptr noundef %1, ptr noundef %2, ptr noundef %3) #1 align 2 {
  %5 = alloca ptr, align 8
  %6 = alloca ptr, align 8
  %7 = alloca ptr, align 8
  %8 = alloca ptr, align 8
  %9 = alloca ptr, align 8
  %10 = alloca ptr, align 8
  %11 = alloca ptr, align 8
  %12 = alloca ptr, align 8
  store ptr %0, ptr %5, align 8
  store ptr %1, ptr %6, align 8
  store ptr %2, ptr %7, align 8
  store ptr %3, ptr %8, align 8
  %13 = load ptr, ptr %7, align 8
  %14 = icmp ne ptr %13, null
  br i1 %14, label %15, label %17

15:                                               ; preds = %4
  %16 = load ptr, ptr %7, align 8
  store ptr null, ptr %16, align 8
  br label %17

17:                                               ; preds = %15, %4
  %18 = load ptr, ptr %8, align 8
  %19 = icmp ne ptr %18, null
  br i1 %19, label %20, label %22

20:                                               ; preds = %17
  %21 = load ptr, ptr %8, align 8
  store ptr null, ptr %21, align 8
  br label %22

22:                                               ; preds = %20, %17
  %23 = load ptr, ptr %5, align 8
  %24 = icmp eq ptr %23, null
  br i1 %24, label %25, label %26

25:                                               ; preds = %22
  br label %29

26:                                               ; preds = %22
  %27 = load ptr, ptr %5, align 8
  %28 = call noundef ptr @_ZNK4Type10isa_aryptrEv(ptr noundef nonnull align 8 dereferenceable(20) %27)
  br label %29

29:                                               ; preds = %26, %25
  %30 = phi ptr [ null, %25 ], [ %28, %26 ]
  store ptr %30, ptr %9, align 8
  %31 = load ptr, ptr %6, align 8
  %32 = icmp eq ptr %31, null
  br i1 %32, label %33, label %34

33:                                               ; preds = %29
  br label %37

34:                                               ; preds = %29
  %35 = load ptr, ptr %6, align 8
  %36 = call noundef ptr @_ZNK4Type10isa_aryptrEv(ptr noundef nonnull align 8 dereferenceable(20) %35)
  br label %37

37:                                               ; preds = %34, %33
  %38 = phi ptr [ null, %33 ], [ %36, %34 ]
  store ptr %38, ptr %10, align 8
  %39 = load ptr, ptr %9, align 8
  %40 = icmp ne ptr %39, null
  br i1 %40, label %41, label %108

41:                                               ; preds = %37
  %42 = load ptr, ptr %10, align 8
  %43 = icmp ne ptr %42, null
  br i1 %43, label %44, label %108

44:                                               ; preds = %41
  %45 = load ptr, ptr %9, align 8
  %46 = call noundef ptr @_ZNK10TypeAryPtr4elemEv(ptr noundef nonnull align 8 dereferenceable(89) %45)
  %47 = call noundef ptr @_ZNK4Type8make_ptrEv(ptr noundef nonnull align 8 dereferenceable(20) %46)
  store ptr %47, ptr %11, align 8
  %48 = load ptr, ptr %10, align 8
  %49 = call noundef ptr @_ZNK10TypeAryPtr4elemEv(ptr noundef nonnull align 8 dereferenceable(89) %48)
  %50 = call noundef ptr @_ZNK4Type8make_ptrEv(ptr noundef nonnull align 8 dereferenceable(20) %49)
  store ptr %50, ptr %12, align 8
  br label %51

51:                                               ; preds = %67, %44
  %52 = load ptr, ptr %11, align 8
  %53 = icmp ne ptr %52, null
  br i1 %53, label %54, label %65

54:                                               ; preds = %51
  %55 = load ptr, ptr %11, align 8
  %56 = call noundef ptr @_ZNK4Type10isa_aryptrEv(ptr noundef nonnull align 8 dereferenceable(20) %55)
  %57 = icmp ne ptr %56, null
  br i1 %57, label %58, label %65

58:                                               ; preds = %54
  %59 = load ptr, ptr %12, align 8
  %60 = icmp ne ptr %59, null
  br i1 %60, label %61, label %65

61:                                               ; preds = %58
  %62 = load ptr, ptr %12, align 8
  %63 = call noundef ptr @_ZNK4Type10isa_aryptrEv(ptr noundef nonnull align 8 dereferenceable(20) %62)
  %64 = icmp ne ptr %63, null
  br label %65

65:                                               ; preds = %61, %58, %54, %51
  %66 = phi i1 [ false, %58 ], [ false, %54 ], [ false, %51 ], [ %64, %61 ]
  br i1 %66, label %67, label %78

67:                                               ; preds = %65
  %68 = load ptr, ptr %11, align 8
  %69 = call noundef ptr @_ZNK4Type9is_aryptrEv(ptr noundef nonnull align 8 dereferenceable(20) %68)
  store ptr %69, ptr %9, align 8
  %70 = load ptr, ptr %12, align 8
  %71 = call noundef ptr @_ZNK4Type9is_aryptrEv(ptr noundef nonnull align 8 dereferenceable(20) %70)
  store ptr %71, ptr %10, align 8
  %72 = load ptr, ptr %9, align 8
  %73 = call noundef ptr @_ZNK10TypeAryPtr4elemEv(ptr noundef nonnull align 8 dereferenceable(89) %72)
  %74 = call noundef ptr @_ZNK4Type8make_ptrEv(ptr noundef nonnull align 8 dereferenceable(20) %73)
  store ptr %74, ptr %11, align 8
  %75 = load ptr, ptr %10, align 8
  %76 = call noundef ptr @_ZNK10TypeAryPtr4elemEv(ptr noundef nonnull align 8 dereferenceable(89) %75)
  %77 = call noundef ptr @_ZNK4Type8make_ptrEv(ptr noundef nonnull align 8 dereferenceable(20) %76)
  store ptr %77, ptr %12, align 8
  br label %51, !llvm.loop !6

78:                                               ; preds = %65
  %79 = load ptr, ptr %11, align 8
  %80 = icmp ne ptr %79, null
  br i1 %80, label %81, label %107

81:                                               ; preds = %78
  %82 = load ptr, ptr %11, align 8
  %83 = call noundef ptr @_ZNK4Type11isa_instptrEv(ptr noundef nonnull align 8 dereferenceable(20) %82)
  %84 = icmp ne ptr %83, null
  br i1 %84, label %85, label %107

85:                                               ; preds = %81
  %86 = load ptr, ptr %12, align 8
  %87 = icmp ne ptr %86, null
  br i1 %87, label %88, label %107

88:                                               ; preds = %85
  %89 = load ptr, ptr %12, align 8
  %90 = call noundef ptr @_ZNK4Type11isa_instptrEv(ptr noundef nonnull align 8 dereferenceable(20) %89)
  %91 = icmp ne ptr %90, null
  br i1 %91, label %92, label %107

92:                                               ; preds = %88
  %93 = load ptr, ptr %7, align 8
  %94 = icmp ne ptr %93, null
  br i1 %94, label %95, label %99

95:                                               ; preds = %92
  %96 = load ptr, ptr %11, align 8
  %97 = call noundef ptr @_ZNK4Type10is_instptrEv(ptr noundef nonnull align 8 dereferenceable(20) %96)
  %98 = load ptr, ptr %7, align 8
  store ptr %97, ptr %98, align 8
  br label %99

99:                                               ; preds = %95, %92
  %100 = load ptr, ptr %8, align 8
  %101 = icmp ne ptr %100, null
  br i1 %101, label %102, label %106

102:                                              ; preds = %99
  %103 = load ptr, ptr %12, align 8
  %104 = call noundef ptr @_ZNK4Type10is_instptrEv(ptr noundef nonnull align 8 dereferenceable(20) %103)
  %105 = load ptr, ptr %8, align 8
  store ptr %104, ptr %105, align 8
  br label %106

106:                                              ; preds = %102, %99
  br label %107

107:                                              ; preds = %106, %88, %85, %81, %78
  br label %108

108:                                              ; preds = %107, %41, %37
  ret void
}