; Function Attrs: mustprogress nofree norecurse nosync nounwind memory(read, argmem: readwrite, inaccessiblemem: none) uwtable
define hidden void @_ZN4Type24get_arrays_base_elementsEPKS_S1_PPK11TypeInstPtrS5_(ptr noundef readonly %0, ptr noundef readonly %1, ptr noundef writeonly %2, ptr noundef writeonly %3) local_unnamed_addr #2 align 2 {
  %.not = icmp eq ptr %2, null
  br i1 %.not, label %6, label %5

5:                                                ; preds = %4
  store ptr null, ptr %2, align 8
  br label %6

6:                                                ; preds = %5, %4
  %.not43 = icmp eq ptr %3, null
  br i1 %.not43, label %8, label %7

7:                                                ; preds = %6
  store ptr null, ptr %3, align 8
  br label %8

8:                                                ; preds = %7, %6
  %9 = icmp eq ptr %0, null
  br i1 %9, label %14, label %10

10:                                               ; preds = %8
  %11 = getelementptr inbounds i8, ptr %0, i64 16
  %12 = load i32, ptr %11, align 8
  %13 = icmp eq i32 %12, 22
  %..i = select i1 %13, ptr %0, ptr null
  br label %14

14:                                               ; preds = %8, %10
  %15 = phi ptr [ %..i, %10 ], [ null, %8 ]
  %16 = icmp eq ptr %1, null
  br i1 %16, label %.critedge47, label %17

17:                                               ; preds = %14
  %18 = getelementptr inbounds i8, ptr %1, i64 16
  %19 = load i32, ptr %18, align 8
  %20 = icmp eq i32 %19, 22
  %21 = icmp ne ptr %15, null
  %or.cond = and i1 %21, %20
  br i1 %or.cond, label %22, label %.critedge47

22:                                               ; preds = %17
  %23 = getelementptr inbounds i8, ptr %15, i64 80
  %24 = load ptr, ptr %23, align 8
  %25 = getelementptr inbounds i8, ptr %24, i64 24
  %26 = load ptr, ptr %25, align 8
  %27 = getelementptr inbounds i8, ptr %26, i64 16
  %28 = load i32, ptr %27, align 8
  switch i32 %28, label %35 [
    i32 6, label %29
    i32 7, label %32
  ]

29:                                               ; preds = %22
  %30 = getelementptr inbounds i8, ptr %26, i64 24
  %31 = load ptr, ptr %30, align 8
  br label %_ZNK4Type8make_ptrEv.exit

32:                                               ; preds = %22
  %33 = getelementptr inbounds i8, ptr %26, i64 24
  %34 = load ptr, ptr %33, align 8
  br label %_ZNK4Type8make_ptrEv.exit

35:                                               ; preds = %22
  %36 = add i32 %28, -18
  %or.cond.i.i = icmp ult i32 %36, 9
  %37 = select i1 %or.cond.i.i, ptr %26, ptr null
  br label %_ZNK4Type8make_ptrEv.exit

_ZNK4Type8make_ptrEv.exit:                        ; preds = %29, %32, %35
  %38 = phi ptr [ %31, %29 ], [ %34, %32 ], [ %37, %35 ]
  %39 = getelementptr inbounds i8, ptr %1, i64 80
  %40 = load ptr, ptr %39, align 8
  %41 = getelementptr inbounds i8, ptr %40, i64 24
  %42 = load ptr, ptr %41, align 8
  %43 = getelementptr inbounds i8, ptr %42, i64 16
  %44 = load i32, ptr %43, align 8
  switch i32 %44, label %51 [
    i32 6, label %45
    i32 7, label %48
  ]

45:                                               ; preds = %_ZNK4Type8make_ptrEv.exit
  %46 = getelementptr inbounds i8, ptr %42, i64 24
  %47 = load ptr, ptr %46, align 8
  br label %_ZNK4Type8make_ptrEv.exit50

48:                                               ; preds = %_ZNK4Type8make_ptrEv.exit
  %49 = getelementptr inbounds i8, ptr %42, i64 24
  %50 = load ptr, ptr %49, align 8
  br label %_ZNK4Type8make_ptrEv.exit50

51:                                               ; preds = %_ZNK4Type8make_ptrEv.exit
  %52 = add i32 %44, -18
  %or.cond.i.i49 = icmp ult i32 %52, 9
  %53 = select i1 %or.cond.i.i49, ptr %42, ptr null
  br label %_ZNK4Type8make_ptrEv.exit50

_ZNK4Type8make_ptrEv.exit50:                      ; preds = %45, %48, %51
  %54 = phi ptr [ %47, %45 ], [ %50, %48 ], [ %53, %51 ]
  %.not4469 = icmp eq ptr %38, null
  br i1 %.not4469, label %.critedge47, label %.lr.ph

.lr.ph:                                           ; preds = %_ZNK4Type8make_ptrEv.exit50, %_ZNK4Type8make_ptrEv.exit56
  %.071 = phi ptr [ %94, %_ZNK4Type8make_ptrEv.exit56 ], [ %54, %_ZNK4Type8make_ptrEv.exit50 ]
  %.03570 = phi ptr [ %78, %_ZNK4Type8make_ptrEv.exit56 ], [ %38, %_ZNK4Type8make_ptrEv.exit50 ]
  %55 = getelementptr inbounds i8, ptr %.03570, i64 16
  %56 = load i32, ptr %55, align 8
  %57 = icmp eq i32 %56, 22
  %58 = icmp ne ptr %.071, null
  %or.cond3 = and i1 %58, %57
  br i1 %or.cond3, label %59, label %.critedge

59:                                               ; preds = %.lr.ph
  %60 = getelementptr inbounds i8, ptr %.071, i64 16
  %61 = load i32, ptr %60, align 8
  %.not65 = icmp eq i32 %61, 22
  br i1 %.not65, label %62, label %.critedge47

62:                                               ; preds = %59
  %63 = getelementptr inbounds i8, ptr %.03570, i64 80
  %64 = load ptr, ptr %63, align 8
  %65 = getelementptr inbounds i8, ptr %64, i64 24
  %66 = load ptr, ptr %65, align 8
  %67 = getelementptr inbounds i8, ptr %66, i64 16
  %68 = load i32, ptr %67, align 8
  switch i32 %68, label %75 [
    i32 6, label %69
    i32 7, label %72
  ]

69:                                               ; preds = %62
  %70 = getelementptr inbounds i8, ptr %66, i64 24
  %71 = load ptr, ptr %70, align 8
  br label %_ZNK4Type8make_ptrEv.exit54

72:                                               ; preds = %62
  %73 = getelementptr inbounds i8, ptr %66, i64 24
  %74 = load ptr, ptr %73, align 8
  br label %_ZNK4Type8make_ptrEv.exit54

75:                                               ; preds = %62
  %76 = add i32 %68, -18
  %or.cond.i.i53 = icmp ult i32 %76, 9
  %77 = select i1 %or.cond.i.i53, ptr %66, ptr null
  br label %_ZNK4Type8make_ptrEv.exit54

_ZNK4Type8make_ptrEv.exit54:                      ; preds = %69, %72, %75
  %78 = phi ptr [ %71, %69 ], [ %74, %72 ], [ %77, %75 ]
  %79 = getelementptr inbounds i8, ptr %.071, i64 80
  %80 = load ptr, ptr %79, align 8
  %81 = getelementptr inbounds i8, ptr %80, i64 24
  %82 = load ptr, ptr %81, align 8
  %83 = getelementptr inbounds i8, ptr %82, i64 16
  %84 = load i32, ptr %83, align 8
  switch i32 %84, label %91 [
    i32 6, label %85
    i32 7, label %88
  ]

85:                                               ; preds = %_ZNK4Type8make_ptrEv.exit54
  %86 = getelementptr inbounds i8, ptr %82, i64 24
  %87 = load ptr, ptr %86, align 8
  br label %_ZNK4Type8make_ptrEv.exit56

88:                                               ; preds = %_ZNK4Type8make_ptrEv.exit54
  %89 = getelementptr inbounds i8, ptr %82, i64 24
  %90 = load ptr, ptr %89, align 8
  br label %_ZNK4Type8make_ptrEv.exit56

91:                                               ; preds = %_ZNK4Type8make_ptrEv.exit54
  %92 = add i32 %84, -18
  %or.cond.i.i55 = icmp ult i32 %92, 9
  %93 = select i1 %or.cond.i.i55, ptr %82, ptr null
  br label %_ZNK4Type8make_ptrEv.exit56

_ZNK4Type8make_ptrEv.exit56:                      ; preds = %85, %88, %91
  %94 = phi ptr [ %87, %85 ], [ %90, %88 ], [ %93, %91 ]
  %.not44 = icmp eq ptr %78, null
  br i1 %.not44, label %.critedge47, label %.lr.ph, !llvm.loop !6

.critedge:                                        ; preds = %.lr.ph
  %95 = icmp eq i32 %56, 21
  %or.cond5 = and i1 %58, %95
  br i1 %or.cond5, label %96, label %.critedge47

96:                                               ; preds = %.critedge
  %97 = getelementptr inbounds i8, ptr %.071, i64 16
  %98 = load i32, ptr %97, align 8
  %.not63 = icmp eq i32 %98, 21
  br i1 %.not63, label %99, label %.critedge47

99:                                               ; preds = %96
  br i1 %.not, label %101, label %100

100:                                              ; preds = %99
  store ptr %.03570, ptr %2, align 8
  br label %101

101:                                              ; preds = %100, %99
  br i1 %.not43, label %.critedge47, label %102

102:                                              ; preds = %101
  store ptr %.071, ptr %3, align 8
  br label %.critedge47

.critedge47:                                      ; preds = %_ZNK4Type8make_ptrEv.exit56, %59, %_ZNK4Type8make_ptrEv.exit50, %14, %.critedge, %96, %102, %101, %17
  ret void
}